target datalayout = "e-m:e-p270:32:32-p271:32:32-p272:64:64-i64:64-i128:128-f80:128-n8:16:32:64-S128"
target triple = "x86_64-pc-linux-gnu"

@unicode_gc_mask_table = internal constant [8 x i32] [i32 14, i32 62, i32 448, i32 3584, i32 61440, i32 8323072, i32 58720256, i32 1006632961], align 16

; Function Attrs: nounwind uwtable
define internal i32 @unicode_find_name(ptr noundef %0, ptr noundef %1) #0 {
  %3 = alloca i32, align 4
  %4 = alloca ptr, align 8
  %5 = alloca ptr, align 8
  %6 = alloca ptr, align 8
  %7 = alloca ptr, align 8
  %8 = alloca i32, align 4
  %9 = alloca i64, align 8
  %10 = alloca i64, align 8
  store ptr %0, ptr %4, align 8
  store ptr %1, ptr %5, align 8
  %11 = load ptr, ptr %4, align 8
  store ptr %11, ptr %6, align 8
  store i32 0, ptr %8, align 4
  %12 = load ptr, ptr %5, align 8
  %13 = call i64 @strlen(ptr noundef %12) #9
  store i64 %13, ptr %9, align 8
  br label %14

14:                                               ; preds = %54, %2
  %15 = load ptr, ptr %6, align 8
  %16 = load i8, ptr %15, align 1
  %17 = icmp ne i8 %16, 0
  br i1 %17, label %18, label %57

18:                                               ; preds = %14
  br label %19

19:                                               ; preds = %53, %18
  %20 = load ptr, ptr %6, align 8
  %21 = call ptr @strchr(ptr noundef %20, i32 noundef 44) #9
  store ptr %21, ptr %7, align 8
  %22 = load ptr, ptr %7, align 8
  %23 = icmp ne ptr %22, null
  br i1 %23, label %27, label %24

24:                                               ; preds = %19
  %25 = load ptr, ptr %6, align 8
  %26 = call i64 @strlen(ptr noundef %25) #9
  store i64 %26, ptr %10, align 8
  br label %33

27:                                               ; preds = %19
  %28 = load ptr, ptr %7, align 8
  %29 = load ptr, ptr %6, align 8
  %30 = ptrtoint ptr %28 to i64
  %31 = ptrtoint ptr %29 to i64
  %32 = sub i64 %30, %31
  store i64 %32, ptr %10, align 8
  br label %33

33:                                               ; preds = %27, %24
  %34 = load i64, ptr %10, align 8
  %35 = load i64, ptr %9, align 8
  %36 = icmp eq i64 %34, %35
  br i1 %36, label %37, label %45

37:                                               ; preds = %33
  %38 = load ptr, ptr %6, align 8
  %39 = load ptr, ptr %5, align 8
  %40 = load i64, ptr %9, align 8
  %41 = call i32 @memcmp(ptr noundef %38, ptr noundef %39, i64 noundef %40) #9
  %42 = icmp ne i32 %41, 0
  br i1 %42, label %45, label %43

43:                                               ; preds = %37
  %44 = load i32, ptr %8, align 4
  store i32 %44, ptr %3, align 4
  br label %58

45:                                               ; preds = %37, %33
  %46 = load i64, ptr %10, align 8
  %47 = add i64 %46, 1
  %48 = load ptr, ptr %6, align 8
  %49 = getelementptr i8, ptr %48, i64 %47
  store ptr %49, ptr %6, align 8
  %50 = load ptr, ptr %7, align 8
  %51 = icmp ne ptr %50, null
  br i1 %51, label %53, label %52

52:                                               ; preds = %45
  br label %54

53:                                               ; preds = %45
  br label %19

54:                                               ; preds = %52
  %55 = load i32, ptr %8, align 4
  %56 = add i32 %55, 1
  store i32 %56, ptr %8, align 4
  br label %14, !llvm.loop !23

57:                                               ; preds = %14
  store i32 -1, ptr %3, align 4
  br label %58

58:                                               ; preds = %57, %43
  %59 = load i32, ptr %3, align 4
  ret i32 %59
}

; Function Attrs: nounwind uwtable
define dso_local i32 @unicode_general_category(ptr noundef %0, ptr noundef %1) #0 {
  %3 = alloca i32, align 4
  %4 = alloca ptr, align 8
  %5 = alloca ptr, align 8
  %6 = alloca i32, align 4
  %7 = alloca i32, align 4
  store ptr %0, ptr %4, align 8
  store ptr %1, ptr %5, align 8
  %8 = load ptr, ptr %5, align 8
  %9 = call i32 @unicode_find_name(ptr noundef @unicode_gc_name_table, ptr noundef %8)
  store i32 %9, ptr %6, align 4
  %10 = load i32, ptr %6, align 4
  %11 = icmp slt i32 %10, 0
  br i1 %11, label %12, label %13

12:                                               ; preds = %2
  store i32 -2, ptr %3, align 4
  br label %31

13:                                               ; preds = %2
  %14 = load i32, ptr %6, align 4
  %15 = icmp sle i32 %14, 29
  br i1 %15, label %16, label %21

16:                                               ; preds = %13
  %17 = load i32, ptr %6, align 4
  %18 = zext i32 %17 to i64
  %19 = shl i64 1, %18
  %20 = trunc i64 %19 to i32
  store i32 %20, ptr %7, align 4
  br label %27

21:                                               ; preds = %13
  %22 = load i32, ptr %6, align 4
  %23 = sub i32 %22, 30
  %24 = sext i32 %23 to i64
  %25 = getelementptr [8 x i32], ptr @unicode_gc_mask_table, i64 0, i64 %24
  %26 = load i32, ptr %25, align 4
  store i32 %26, ptr %7, align 4
  br label %27

27:                                               ; preds = %21, %16
  %28 = load ptr, ptr %4, align 8
  %29 = load i32, ptr %7, align 4
  %30 = call i32 @unicode_general_category1(ptr noundef %28, i32 noundef %29)
  store i32 %30, ptr %3, align 4
  br label %31

31:                                               ; preds = %27, %12
  %32 = load i32, ptr %3, align 4
  ret i32 %32
}