; Function Attrs: nounwind uwtable
define dso_local noundef i32 @unicode_general_category(ptr nocapture noundef %0, ptr nocapture noundef readonly %1) local_unnamed_addr #5 {
  %3 = tail call i64 @strlen(ptr noundef nonnull dereferenceable(1) %1) #22
  br label %.preheader.i

.preheader.i:                                     ; preds = %18, %2
  %.01929.i = phi i32 [ %19, %18 ], [ 0, %2 ]
  %.02028.i = phi ptr [ %17, %18 ], [ @unicode_gc_name_table, %2 ]
  br label %4

4:                                                ; preds = %15, %.preheader.i
  %.1.i = phi ptr [ %17, %15 ], [ %.02028.i, %.preheader.i ]
  %5 = tail call ptr @strchr(ptr noundef nonnull dereferenceable(1) %.1.i, i32 noundef 44) #22
  %.not23.i = icmp eq ptr %5, null
  br i1 %.not23.i, label %6, label %8

6:                                                ; preds = %4
  %7 = tail call i64 @strlen(ptr noundef nonnull dereferenceable(1) %.1.i) #22
  br label %12

8:                                                ; preds = %4
  %9 = ptrtoint ptr %5 to i64
  %10 = ptrtoint ptr %.1.i to i64
  %11 = sub i64 %9, %10
  br label %12

12:                                               ; preds = %8, %6
  %.0.i = phi i64 [ %11, %8 ], [ %7, %6 ]
  %13 = icmp eq i64 %.0.i, %3
  br i1 %13, label %14, label %15

14:                                               ; preds = %12
  %bcmp.i = tail call i32 @bcmp(ptr %.1.i, ptr %1, i64 %3)
  %.not24.i = icmp eq i32 %bcmp.i, 0
  br i1 %.not24.i, label %unicode_find_name.exit, label %15

15:                                               ; preds = %14, %12
  %16 = add i64 %.0.i, 1
  %17 = getelementptr i8, ptr %.1.i, i64 %16
  br i1 %.not23.i, label %18, label %4

18:                                               ; preds = %15
  %19 = add i32 %.01929.i, 1
  %20 = load i8, ptr %17, align 1
  %.not.i = icmp eq i8 %20, 0
  br i1 %.not.i, label %unicode_find_name.exit.thread, label %.preheader.i, !llvm.loop !26

unicode_find_name.exit:                           ; preds = %14
  %21 = icmp slt i32 %.01929.i, 0
  br i1 %21, label %unicode_find_name.exit.thread, label %22

22:                                               ; preds = %unicode_find_name.exit
  %23 = icmp ult i32 %.01929.i, 30
  br i1 %23, label %24, label %28

24:                                               ; preds = %22
  %25 = zext nneg i32 %.01929.i to i64
  %26 = shl nuw nsw i64 1, %25
  %27 = trunc i64 %26 to i32
  br label %33

28:                                               ; preds = %22
  %29 = add nsw i32 %.01929.i, -30
  %30 = zext nneg i32 %29 to i64
  %31 = getelementptr [8 x i32], ptr @unicode_gc_mask_table, i64 0, i64 %30
  %32 = load i32, ptr %31, align 4
  br label %33

33:                                               ; preds = %28, %24
  %.0 = phi i32 [ %27, %24 ], [ %32, %28 ]
  %34 = tail call fastcc i32 @unicode_general_category1(ptr noundef %0, i32 noundef %.0), !range !16
  br label %unicode_find_name.exit.thread

unicode_find_name.exit.thread:                    ; preds = %18, %unicode_find_name.exit, %33
  %.07 = phi i32 [ %34, %33 ], [ -2, %unicode_find_name.exit ], [ -2, %18 ]
  ret i32 %.07
}